; ModuleID = '36/1122.c'
source_filename = "36/1122.c"
target datalayout = "e-m:e-p270:32:32-p271:32:32-p272:64:64-i64:64-f80:128-n8:16:32:64-S128"
target triple = "x86_64-pc-linux-gnu"

@.str = private unnamed_addr constant [6 x i8] c"%s %s\00", align 1
@.str.1 = private unnamed_addr constant [3 x i8] c"NO\00", align 1
@.str.2 = private unnamed_addr constant [4 x i8] c"YES\00", align 1

; Function Attrs: noinline nounwind uwtable
define dso_local i32 @main() #0 {
  %1 = alloca i32, align 4
  %2 = alloca [200 x i8], align 16
  %3 = alloca [200 x i8], align 16
  %4 = alloca [26 x i32], align 16
  %5 = alloca [26 x i32], align 16
  %6 = alloca i32, align 4
  %7 = alloca i32, align 4
  %8 = alloca i32, align 4
  store i32 0, i32* %1, align 4
  %9 = bitcast [26 x i32]* %4 to i8*
  call void @llvm.memset.p0i8.i64(i8* align 16 %9, i8 0, i64 104, i1 false)
  %10 = bitcast [26 x i32]* %5 to i8*
  call void @llvm.memset.p0i8.i64(i8* align 16 %10, i8 0, i64 104, i1 false)
  store i32 0, i32* %8, align 4
  %11 = call i32 (i8*, ...) @__isoc99_scanf(i8* getelementptr inbounds ([6 x i8], [6 x i8]* @.str, i64 0, i64 0), [200 x i8]* %3, [200 x i8]* %2)
  %12 = getelementptr inbounds [200 x i8], [200 x i8]* %3, i64 0, i64 0
  %13 = call i64 @strlen(i8* %12) #4
  %14 = trunc i64 %13 to i32
  store i32 %14, i32* %6, align 4
  %15 = getelementptr inbounds [200 x i8], [200 x i8]* %2, i64 0, i64 0
  %16 = call i64 @strlen(i8* %15) #4
  %17 = trunc i64 %16 to i32
  store i32 %17, i32* %7, align 4
  %18 = load i32, i32* %6, align 4
  %19 = load i32, i32* %7, align 4
  %20 = icmp ne i32 %18, %19
  br i1 %20, label %21, label %23

21:                                               ; preds = %0
  %22 = call i32 (i8*, ...) @printf(i8* getelementptr inbounds ([3 x i8], [3 x i8]* @.str.1, i64 0, i64 0))
  br label %90

23:                                               ; preds = %0
  store i32 0, i32* %8, align 4
  br label %24

24:                                               ; preds = %40, %23
  %25 = load i32, i32* %8, align 4
  %26 = load i32, i32* %6, align 4
  %27 = sub nsw i32 %26, 1
  %28 = icmp sle i32 %25, %27
  br i1 %28, label %29, label %43

29:                                               ; preds = %24
  %30 = load i32, i32* %8, align 4
  %31 = sext i32 %30 to i64
  %32 = getelementptr inbounds [200 x i8], [200 x i8]* %3, i64 0, i64 %31
  %33 = load i8, i8* %32, align 1
  %34 = sext i8 %33 to i32
  %35 = sub nsw i32 %34, 97
  %36 = sext i32 %35 to i64
  %37 = getelementptr inbounds [26 x i32], [26 x i32]* %4, i64 0, i64 %36
  %38 = load i32, i32* %37, align 4
  %39 = add nsw i32 %38, 1
  store i32 %39, i32* %37, align 4
  br label %40

40:                                               ; preds = %29
  %41 = load i32, i32* %8, align 4
  %42 = add nsw i32 %41, 1
  store i32 %42, i32* %8, align 4
  br label %24

43:                                               ; preds = %24
  store i32 0, i32* %8, align 4
  br label %44

44:                                               ; preds = %60, %43
  %45 = load i32, i32* %8, align 4
  %46 = load i32, i32* %7, align 4
  %47 = sub nsw i32 %46, 1
  %48 = icmp sle i32 %45, %47
  br i1 %48, label %49, label %63

49:                                               ; preds = %44
  %50 = load i32, i32* %8, align 4
  %51 = sext i32 %50 to i64
  %52 = getelementptr inbounds [200 x i8], [200 x i8]* %2, i64 0, i64 %51
  %53 = load i8, i8* %52, align 1
  %54 = sext i8 %53 to i32
  %55 = sub nsw i32 %54, 97
  %56 = sext i32 %55 to i64
  %57 = getelementptr inbounds [26 x i32], [26 x i32]* %5, i64 0, i64 %56
  %58 = load i32, i32* %57, align 4
  %59 = add nsw i32 %58, 1
  store i32 %59, i32* %57, align 4
  br label %60

60:                                               ; preds = %49
  %61 = load i32, i32* %8, align 4
  %62 = add nsw i32 %61, 1
  store i32 %62, i32* %8, align 4
  br label %44

63:                                               ; preds = %44
  store i32 0, i32* %8, align 4
  br label %64

64:                                               ; preds = %79, %63
  %65 = load i32, i32* %8, align 4
  %66 = icmp sle i32 %65, 25
  br i1 %66, label %67, label %82

67:                                               ; preds = %64
  %68 = load i32, i32* %8, align 4
  %69 = sext i32 %68 to i64
  %70 = getelementptr inbounds [26 x i32], [26 x i32]* %4, i64 0, i64 %69
  %71 = load i32, i32* %70, align 4
  %72 = load i32, i32* %8, align 4
  %73 = sext i32 %72 to i64
  %74 = getelementptr inbounds [26 x i32], [26 x i32]* %5, i64 0, i64 %73
  %75 = load i32, i32* %74, align 4
  %76 = icmp ne i32 %71, %75
  br i1 %76, label %77, label %78

77:                                               ; preds = %67
  br label %82

78:                                               ; preds = %67
  br label %79

79:                                               ; preds = %78
  %80 = load i32, i32* %8, align 4
  %81 = add nsw i32 %80, 1
  store i32 %81, i32* %8, align 4
  br label %64

82:                                               ; preds = %77, %64
  %83 = load i32, i32* %8, align 4
  %84 = icmp eq i32 %83, 26
  br i1 %84, label %85, label %87

85:                                               ; preds = %82
  %86 = call i32 (i8*, ...) @printf(i8* getelementptr inbounds ([4 x i8], [4 x i8]* @.str.2, i64 0, i64 0))
  br label %89

87:                                               ; preds = %82
  %88 = call i32 (i8*, ...) @printf(i8* getelementptr inbounds ([3 x i8], [3 x i8]* @.str.1, i64 0, i64 0))
  br label %89

89:                                               ; preds = %87, %85
  br label %90

90:                                               ; preds = %89, %21
  %91 = call i32 @getchar()
  %92 = call i32 @getchar()
  %93 = load i32, i32* %1, align 4
  ret i32 %93
}

; Function Attrs: argmemonly nounwind willreturn
declare void @llvm.memset.p0i8.i64(i8* nocapture writeonly, i8, i64, i1 immarg) #1

declare dso_local i32 @__isoc99_scanf(i8*, ...) #2

; Function Attrs: nounwind readonly
declare dso_local i64 @strlen(i8*) #3

declare dso_local i32 @printf(i8*, ...) #2

declare dso_local i32 @getchar() #2


!llvm.module.flags = !{!0}
!llvm.ident = !{!1}

!0 = !{i32 1, !"wchar_size", i32 4}
!1 = !{!"clang version 10.0.0-4ubuntu1 "}
